target datalayout = "e-m:e-p270:32:32-p271:32:32-p272:64:64-i64:64-i128:128-f80:128-n8:16:32:64-S128"
target triple = "x86_64-pc-linux-gnu"

%struct._lv_image_decoder_dsc_t = type { ptr, %struct._lv_image_decoder_args_t, ptr, i32, %struct.lv_fs_file_t, %struct.lv_image_header_t, ptr, ptr, i32, i32, ptr, ptr, ptr, ptr }
%struct._lv_image_decoder_args_t = type { i8, i8, i8, i8, i8 }
%struct.lv_fs_file_t = type { ptr, ptr, ptr }
%struct.lv_image_header_t = type <{ i64, i32 }>
%struct.lv_image_dsc_t = type { %struct.lv_image_header_t, i32, ptr, ptr }
%struct.decoder_data_t = type { ptr, ptr, ptr, %struct._lv_image_compressed_t, ptr, ptr, %struct._lv_draw_buf_t, ptr }
%struct._lv_image_compressed_t = type { i32, i32, i32, ptr }
%struct._lv_draw_buf_t = type { %struct.lv_image_header_t, i32, ptr, ptr, ptr }

; Function Attrs: nounwind uwtable
define internal i32 @fs_read_file_at(ptr noundef %0, i32 noundef %1, ptr noundef %2, i32 noundef %3, ptr noundef %4) #0 {
  %6 = alloca i32, align 4
  %7 = alloca ptr, align 8
  %8 = alloca i32, align 4
  %9 = alloca ptr, align 8
  %10 = alloca i32, align 4
  %11 = alloca ptr, align 8
  %12 = alloca i32, align 4
  %13 = alloca i32, align 4
  store ptr %0, ptr %7, align 8, !tbaa !13
  store i32 %1, ptr %8, align 4, !tbaa !27
  store ptr %2, ptr %9, align 8, !tbaa !13
  store i32 %3, ptr %10, align 4, !tbaa !27
  store ptr %4, ptr %11, align 8, !tbaa !69
  call void @llvm.lifetime.start.p0(i64 4, ptr %12) #5
  %14 = load ptr, ptr %11, align 8, !tbaa !69
  %15 = icmp ne ptr %14, null
  br i1 %15, label %16, label %18

16:                                               ; preds = %5
  %17 = load ptr, ptr %11, align 8, !tbaa !69
  store i32 0, ptr %17, align 4, !tbaa !27
  br label %18

18:                                               ; preds = %16, %5
  %19 = load ptr, ptr %7, align 8, !tbaa !13
  %20 = load i32, ptr %8, align 4, !tbaa !27
  %21 = call i32 @lv_fs_seek(ptr noundef %19, i32 noundef %20, i32 noundef 0)
  store i32 %21, ptr %12, align 4, !tbaa !27
  %22 = load i32, ptr %12, align 4, !tbaa !27
  %23 = icmp ne i32 %22, 0
  br i1 %23, label %24, label %26

24:                                               ; preds = %18
  %25 = load i32, ptr %12, align 4, !tbaa !27
  store i32 %25, ptr %6, align 4
  store i32 1, ptr %13, align 4
  br label %39

26:                                               ; preds = %18
  %27 = load ptr, ptr %7, align 8, !tbaa !13
  %28 = load ptr, ptr %9, align 8, !tbaa !13
  %29 = load i32, ptr %10, align 4, !tbaa !27
  %30 = load ptr, ptr %11, align 8, !tbaa !69
  %31 = call i32 @lv_fs_read(ptr noundef %27, ptr noundef %28, i32 noundef %29, ptr noundef %30)
  %32 = load i32, ptr %12, align 4, !tbaa !27
  %33 = or i32 %32, %31
  store i32 %33, ptr %12, align 4, !tbaa !27
  %34 = load i32, ptr %12, align 4, !tbaa !27
  %35 = icmp ne i32 %34, 0
  br i1 %35, label %36, label %38

36:                                               ; preds = %26
  %37 = load i32, ptr %12, align 4, !tbaa !27
  store i32 %37, ptr %6, align 4
  store i32 1, ptr %13, align 4
  br label %39

38:                                               ; preds = %26
  store i32 0, ptr %6, align 4
  store i32 1, ptr %13, align 4
  br label %39

39:                                               ; preds = %38, %36, %24
  call void @llvm.lifetime.end.p0(i64 4, ptr %12) #5
  %40 = load i32, ptr %6, align 4
  ret i32 %40
}

; Function Attrs: nounwind uwtable
define internal i32 @decode_indexed(ptr noundef %0, ptr noundef %1) #0 {
  %3 = alloca i32, align 4
  %4 = alloca ptr, align 8
  %5 = alloca ptr, align 8
  %6 = alloca i32, align 4
  %7 = alloca i32, align 4
  %8 = alloca ptr, align 8
  %9 = alloca ptr, align 8
  %10 = alloca i32, align 4
  %11 = alloca i32, align 4
  %12 = alloca ptr, align 8
  %13 = alloca ptr, align 8
  %14 = alloca ptr, align 8
  %15 = alloca i32, align 4
  %16 = alloca i8, align 1
  %17 = alloca ptr, align 8
  %18 = alloca i32, align 4
  %19 = alloca ptr, align 8
  store ptr %0, ptr %4, align 8, !tbaa !3
  store ptr %1, ptr %5, align 8, !tbaa !11
  call void @llvm.lifetime.start.p0(i64 4, ptr %6) #5
  call void @llvm.lifetime.start.p0(i64 4, ptr %7) #5
  call void @llvm.lifetime.start.p0(i64 8, ptr %8) #5
  %20 = load ptr, ptr %5, align 8, !tbaa !11
  %21 = getelementptr inbounds nuw %struct._lv_image_decoder_dsc_t, ptr %20, i32 0, i32 13
  %22 = load ptr, ptr %21, align 8, !tbaa !29
  store ptr %22, ptr %8, align 8, !tbaa !13
  call void @llvm.lifetime.start.p0(i64 8, ptr %9) #5
  %23 = load ptr, ptr %8, align 8, !tbaa !13
  %24 = getelementptr inbounds nuw %struct.decoder_data_t, ptr %23, i32 0, i32 0
  %25 = load ptr, ptr %24, align 8, !tbaa !30
  store ptr %25, ptr %9, align 8, !tbaa !13
  call void @llvm.lifetime.start.p0(i64 4, ptr %10) #5
  %26 = load ptr, ptr %5, align 8, !tbaa !11
  %27 = getelementptr inbounds nuw %struct._lv_image_decoder_dsc_t, ptr %26, i32 0, i32 5
  %28 = load i64, ptr %27, align 8
  %29 = lshr i64 %28, 8
  %30 = and i64 %29, 255
  %31 = trunc i64 %30 to i32
  store i32 %31, ptr %10, align 4, !tbaa !27
  call void @llvm.lifetime.start.p0(i64 4, ptr %11) #5
  %32 = load i32, ptr %10, align 4, !tbaa !27
  %33 = icmp eq i32 %32, 7
  br i1 %33, label %34, label %35

34:                                               ; preds = %2
  br label %51

35:                                               ; preds = %2
  %36 = load i32, ptr %10, align 4, !tbaa !27
  %37 = icmp eq i32 %36, 8
  br i1 %37, label %38, label %39

38:                                               ; preds = %35
  br label %49

39:                                               ; preds = %35
  %40 = load i32, ptr %10, align 4, !tbaa !27
  %41 = icmp eq i32 %40, 9
  br i1 %41, label %42, label %43

42:                                               ; preds = %39
  br label %47

43:                                               ; preds = %39
  %44 = load i32, ptr %10, align 4, !tbaa !27
  %45 = icmp eq i32 %44, 10
  %46 = select i1 %45, i32 256, i32 0
  br label %47

47:                                               ; preds = %43, %42
  %48 = phi i32 [ 16, %42 ], [ %46, %43 ]
  br label %49

49:                                               ; preds = %47, %38
  %50 = phi i32 [ 4, %38 ], [ %48, %47 ]
  br label %51

51:                                               ; preds = %49, %34
  %52 = phi i32 [ 2, %34 ], [ %50, %49 ]
  %53 = sext i32 %52 to i64
  %54 = mul i64 4, %53
  %55 = trunc i64 %54 to i32
  store i32 %55, ptr %11, align 4, !tbaa !27
  call void @llvm.lifetime.start.p0(i64 8, ptr %12) #5
  call void @llvm.lifetime.start.p0(i64 8, ptr %13) #5
  store ptr null, ptr %13, align 8, !tbaa !44
  call void @llvm.lifetime.start.p0(i64 8, ptr %14) #5
  store ptr null, ptr %14, align 8, !tbaa !41
  call void @llvm.lifetime.start.p0(i64 4, ptr %15) #5
  %56 = load ptr, ptr %5, align 8, !tbaa !11
  %57 = getelementptr inbounds nuw %struct._lv_image_decoder_dsc_t, ptr %56, i32 0, i32 5
  %58 = getelementptr inbounds nuw %struct.lv_image_header_t, ptr %57, i32 0, i32 1
  %59 = load i32, ptr %58, align 8
  %60 = and i32 %59, 65535
  store i32 %60, ptr %15, align 4, !tbaa !27
  call void @llvm.lifetime.start.p0(i64 1, ptr %16) #5
  %61 = load ptr, ptr %5, align 8, !tbaa !11
  %62 = getelementptr inbounds nuw %struct._lv_image_decoder_dsc_t, ptr %61, i32 0, i32 5
  %63 = load i64, ptr %62, align 8
  %64 = lshr i64 %63, 16
  %65 = and i64 %64, 65535
  %66 = trunc i64 %65 to i32
  %67 = and i32 %66, 8
  %68 = icmp ne i32 %67, 0
  %69 = zext i1 %68 to i8
  store i8 %69, ptr %16, align 1, !tbaa !28
  %70 = load i8, ptr %16, align 1, !tbaa !28, !range !36, !noundef !37
  %71 = trunc i8 %70 to i1
  br i1 %71, label %72, label %83

72:                                               ; preds = %51
  call void @llvm.lifetime.start.p0(i64 8, ptr %17) #5
  %73 = load ptr, ptr %8, align 8, !tbaa !13
  %74 = getelementptr inbounds nuw %struct.decoder_data_t, ptr %73, i32 0, i32 5
  %75 = load ptr, ptr %74, align 8, !tbaa !65
  %76 = getelementptr inbounds nuw %struct._lv_draw_buf_t, ptr %75, i32 0, i32 2
  %77 = load ptr, ptr %76, align 8, !tbaa !61
  store ptr %77, ptr %17, align 8, !tbaa !44
  %78 = load ptr, ptr %17, align 8, !tbaa !44
  store ptr %78, ptr %12, align 8, !tbaa !13
  %79 = load ptr, ptr %17, align 8, !tbaa !44
  %80 = load i32, ptr %11, align 4, !tbaa !27
  %81 = zext i32 %80 to i64
  %82 = getelementptr inbounds nuw i8, ptr %79, i64 %81
  store ptr %82, ptr %13, align 8, !tbaa !44
  call void @llvm.lifetime.end.p0(i64 8, ptr %17) #5
  br label %151

83:                                               ; preds = %51
  %84 = load ptr, ptr %5, align 8, !tbaa !11
  %85 = getelementptr inbounds nuw %struct._lv_image_decoder_dsc_t, ptr %84, i32 0, i32 3
  %86 = load i32, ptr %85, align 8, !tbaa !26
  %87 = icmp eq i32 %86, 1
  br i1 %87, label %88, label %130

88:                                               ; preds = %83
  %89 = load i32, ptr %11, align 4, !tbaa !27
  %90 = zext i32 %89 to i64
  %91 = call ptr @lv_malloc(i64 noundef %90)
  store ptr %91, ptr %12, align 8, !tbaa !13
  br label %92

92:                                               ; preds = %88
  %93 = load ptr, ptr %12, align 8, !tbaa !13
  %94 = icmp ne ptr %93, null
  br i1 %94, label %101, label %95

95:                                               ; preds = %92
  br label %96

96:                                               ; preds = %95
  br label %97

97:                                               ; preds = %96
  br label %98

98:                                               ; preds = %97
  br label %99

99:                                               ; preds = %100, %98
  br label %100

100:                                              ; preds = %99
  br label %99

101:                                              ; preds = %92
  br label %102

102:                                              ; preds = %101
  br label %103

103:                                              ; preds = %102
  %104 = load ptr, ptr %12, align 8, !tbaa !13
  %105 = icmp eq ptr %104, null
  br i1 %105, label %106, label %110

106:                                              ; preds = %103
  br label %107

107:                                              ; preds = %106
  br label %108

108:                                              ; preds = %107
  br label %109

109:                                              ; preds = %108
  store i32 0, ptr %3, align 4
  store i32 1, ptr %18, align 4
  br label %178

110:                                              ; preds = %103
  %111 = load ptr, ptr %9, align 8, !tbaa !13
  %112 = load ptr, ptr %12, align 8, !tbaa !13
  %113 = load i32, ptr %11, align 4, !tbaa !27
  %114 = call i32 @fs_read_file_at(ptr noundef %111, i32 noundef 12, ptr noundef %112, i32 noundef %113, ptr noundef %7)
  store i32 %114, ptr %6, align 4, !tbaa !27
  %115 = load i32, ptr %6, align 4, !tbaa !27
  %116 = icmp ne i32 %115, 0
  br i1 %116, label %121, label %117

117:                                              ; preds = %110
  %118 = load i32, ptr %7, align 4, !tbaa !27
  %119 = load i32, ptr %11, align 4, !tbaa !27
  %120 = icmp ne i32 %118, %119
  br i1 %120, label %121, label %126

121:                                              ; preds = %117, %110
  br label %122

122:                                              ; preds = %121
  br label %123

123:                                              ; preds = %122
  br label %124

124:                                              ; preds = %123
  %125 = load ptr, ptr %12, align 8, !tbaa !13
  call void @lv_free(ptr noundef %125)
  store i32 0, ptr %3, align 4
  store i32 1, ptr %18, align 4
  br label %178

126:                                              ; preds = %117
  %127 = load ptr, ptr %12, align 8, !tbaa !13
  %128 = load ptr, ptr %8, align 8, !tbaa !13
  %129 = getelementptr inbounds nuw %struct.decoder_data_t, ptr %128, i32 0, i32 1
  store ptr %127, ptr %129, align 8, !tbaa !66
  br label %150

130:                                              ; preds = %83
  %131 = load ptr, ptr %5, align 8, !tbaa !11
  %132 = getelementptr inbounds nuw %struct._lv_image_decoder_dsc_t, ptr %131, i32 0, i32 3
  %133 = load i32, ptr %132, align 8, !tbaa !26
  %134 = icmp eq i32 %133, 0
  br i1 %134, label %135, label %148

135:                                              ; preds = %130
  call void @llvm.lifetime.start.p0(i64 8, ptr %19) #5
  %136 = load ptr, ptr %5, align 8, !tbaa !11
  %137 = getelementptr inbounds nuw %struct._lv_image_decoder_dsc_t, ptr %136, i32 0, i32 2
  %138 = load ptr, ptr %137, align 8, !tbaa !14
  store ptr %138, ptr %19, align 8, !tbaa !13
  %139 = load ptr, ptr %19, align 8, !tbaa !13
  %140 = getelementptr inbounds nuw %struct.lv_image_dsc_t, ptr %139, i32 0, i32 2
  %141 = load ptr, ptr %140, align 8, !tbaa !38
  store ptr %141, ptr %12, align 8, !tbaa !13
  %142 = load ptr, ptr %19, align 8, !tbaa !13
  %143 = getelementptr inbounds nuw %struct.lv_image_dsc_t, ptr %142, i32 0, i32 2
  %144 = load ptr, ptr %143, align 8, !tbaa !38
  %145 = load i32, ptr %11, align 4, !tbaa !27
  %146 = zext i32 %145 to i64
  %147 = getelementptr inbounds nuw i8, ptr %144, i64 %146
  store ptr %147, ptr %13, align 8, !tbaa !44
  call void @llvm.lifetime.end.p0(i64 8, ptr %19) #5
  br label %149

148:                                              ; preds = %130
  store i32 0, ptr %3, align 4
  store i32 1, ptr %18, align 4
  br label %178

149:                                              ; preds = %135
  br label %150

150:                                              ; preds = %149, %126
  br label %151

151:                                              ; preds = %150, %72
  %152 = load ptr, ptr %12, align 8, !tbaa !13
  %153 = load ptr, ptr %5, align 8, !tbaa !11
  %154 = getelementptr inbounds nuw %struct._lv_image_decoder_dsc_t, ptr %153, i32 0, i32 7
  store ptr %152, ptr %154, align 8, !tbaa !64
  %155 = load i32, ptr %10, align 4, !tbaa !27
  %156 = icmp eq i32 %155, 7
  br i1 %156, label %157, label %158

157:                                              ; preds = %151
  br label %174

158:                                              ; preds = %151
  %159 = load i32, ptr %10, align 4, !tbaa !27
  %160 = icmp eq i32 %159, 8
  br i1 %160, label %161, label %162

161:                                              ; preds = %158
  br label %172

162:                                              ; preds = %158
  %163 = load i32, ptr %10, align 4, !tbaa !27
  %164 = icmp eq i32 %163, 9
  br i1 %164, label %165, label %166

165:                                              ; preds = %162
  br label %170

166:                                              ; preds = %162
  %167 = load i32, ptr %10, align 4, !tbaa !27
  %168 = icmp eq i32 %167, 10
  %169 = select i1 %168, i32 256, i32 0
  br label %170

170:                                              ; preds = %166, %165
  %171 = phi i32 [ 16, %165 ], [ %169, %166 ]
  br label %172

172:                                              ; preds = %170, %161
  %173 = phi i32 [ 4, %161 ], [ %171, %170 ]
  br label %174

174:                                              ; preds = %172, %157
  %175 = phi i32 [ 2, %157 ], [ %173, %172 ]
  %176 = load ptr, ptr %5, align 8, !tbaa !11
  %177 = getelementptr inbounds nuw %struct._lv_image_decoder_dsc_t, ptr %176, i32 0, i32 8
  store i32 %175, ptr %177, align 8, !tbaa !63
  store i32 1, ptr %3, align 4
  store i32 1, ptr %18, align 4
  br label %178

178:                                              ; preds = %174, %148, %124, %109
  call void @llvm.lifetime.end.p0(i64 1, ptr %16) #5
  call void @llvm.lifetime.end.p0(i64 4, ptr %15) #5
  call void @llvm.lifetime.end.p0(i64 8, ptr %14) #5
  call void @llvm.lifetime.end.p0(i64 8, ptr %13) #5
  call void @llvm.lifetime.end.p0(i64 8, ptr %12) #5
  call void @llvm.lifetime.end.p0(i64 4, ptr %11) #5
  call void @llvm.lifetime.end.p0(i64 4, ptr %10) #5
  call void @llvm.lifetime.end.p0(i64 8, ptr %9) #5
  call void @llvm.lifetime.end.p0(i64 8, ptr %8) #5
  call void @llvm.lifetime.end.p0(i64 4, ptr %7) #5
  call void @llvm.lifetime.end.p0(i64 4, ptr %6) #5
  %179 = load i32, ptr %3, align 4
  ret i32 %179
}