; Function Attrs: nounwind uwtable
define internal fastcc range(i32 0, 2) i32 @decode_indexed(ptr noundef captures(none) %0) unnamed_addr #0 {
  %2 = alloca i32, align 4
  call void @llvm.lifetime.start.p0(i64 4, ptr nonnull %2) #4
  %3 = getelementptr inbounds nuw i8, ptr %0, i64 120
  %4 = load ptr, ptr %3, align 8, !tbaa !23
  %5 = load ptr, ptr %4, align 8, !tbaa !24
  %6 = getelementptr inbounds nuw i8, ptr %0, i64 56
  %7 = load i64, ptr %6, align 8
  %8 = trunc i64 %7 to i32
  %9 = lshr i32 %8, 8
  %10 = and i32 %9, 255
  %11 = icmp eq i32 %10, 7
  br i1 %11, label %19, label %12

12:                                               ; preds = %1
  %13 = icmp eq i32 %10, 8
  br i1 %13, label %19, label %14

14:                                               ; preds = %12
  %15 = icmp eq i32 %10, 9
  %16 = icmp eq i32 %10, 10
  %17 = select i1 %16, i32 1024, i32 0
  %18 = select i1 %15, i32 64, i32 %17
  br label %19

19:                                               ; preds = %14, %12, %1
  %20 = phi i32 [ 8, %1 ], [ %18, %14 ], [ 16, %12 ]
  %21 = and i64 %7, 524288
  %.not = icmp eq i64 %21, 0
  br i1 %.not, label %27, label %22

22:                                               ; preds = %19
  %23 = getelementptr inbounds nuw i8, ptr %4, i64 56
  %24 = load ptr, ptr %23, align 8, !tbaa !61
  %25 = getelementptr inbounds nuw i8, ptr %24, i64 16
  %26 = load ptr, ptr %25, align 8, !tbaa !55
  br label %44

27:                                               ; preds = %19
  %28 = getelementptr inbounds nuw i8, ptr %0, i64 24
  %29 = load i32, ptr %28, align 8, !tbaa !22
  switch i32 %29, label %56 [
    i32 1, label %30
    i32 0, label %39
  ]

30:                                               ; preds = %27
  %31 = zext nneg i32 %20 to i64
  %32 = tail call ptr @lv_malloc(i64 noundef %31) #4
  %.not42 = icmp eq ptr %32, null
  br i1 %.not42, label %.preheader, label %33

.preheader:                                       ; preds = %30, %.preheader
  br label %.preheader

33:                                               ; preds = %30
  store i32 0, ptr %2, align 4, !tbaa !37
  %34 = tail call i32 @lv_fs_seek(ptr noundef %5, i32 noundef 12, i32 noundef 0) #4
  %.not16.i = icmp eq i32 %34, 0
  br i1 %.not16.i, label %fs_read_file_at.exit, label %fs_read_file_at.exit.thread

fs_read_file_at.exit:                             ; preds = %33
  %35 = call i32 @lv_fs_read(ptr noundef %5, ptr noundef nonnull %32, i32 noundef %20, ptr noundef nonnull %2) #4
  %.not43 = icmp eq i32 %35, 0
  %36 = load i32, ptr %2, align 4
  %.not44 = icmp eq i32 %36, %20
  %or.cond = select i1 %.not43, i1 %.not44, i1 false
  br i1 %or.cond, label %37, label %fs_read_file_at.exit.thread

fs_read_file_at.exit.thread:                      ; preds = %33, %fs_read_file_at.exit
  call void @lv_free(ptr noundef nonnull %32) #4
  br label %56

37:                                               ; preds = %fs_read_file_at.exit
  %38 = getelementptr inbounds nuw i8, ptr %4, i64 8
  store ptr %32, ptr %38, align 8, !tbaa !62
  br label %44

39:                                               ; preds = %27
  %40 = getelementptr inbounds nuw i8, ptr %0, i64 16
  %41 = load ptr, ptr %40, align 8, !tbaa !9
  %42 = getelementptr inbounds nuw i8, ptr %41, i64 16
  %43 = load ptr, ptr %42, align 8, !tbaa !32
  br label %44

44:                                               ; preds = %37, %39, %22
  %.038 = phi ptr [ %26, %22 ], [ %32, %37 ], [ %43, %39 ]
  %45 = getelementptr inbounds nuw i8, ptr %0, i64 80
  store ptr %.038, ptr %45, align 8, !tbaa !58
  br i1 %11, label %53, label %46

46:                                               ; preds = %44
  %47 = icmp eq i32 %10, 8
  br i1 %47, label %53, label %48

48:                                               ; preds = %46
  %49 = icmp eq i32 %10, 9
  %50 = icmp eq i32 %10, 10
  %51 = select i1 %50, i32 256, i32 0
  %52 = select i1 %49, i32 16, i32 %51
  br label %53

53:                                               ; preds = %48, %46, %44
  %54 = phi i32 [ 2, %44 ], [ %52, %48 ], [ 4, %46 ]
  %55 = getelementptr inbounds nuw i8, ptr %0, i64 88
  store i32 %54, ptr %55, align 8, !tbaa !57
  br label %56

56:                                               ; preds = %27, %53, %fs_read_file_at.exit.thread
  %.0 = phi i32 [ 1, %53 ], [ 0, %fs_read_file_at.exit.thread ], [ 0, %27 ]
  call void @llvm.lifetime.end.p0(i64 4, ptr nonnull %2) #4
  ret i32 %.0
}